target datalayout = "e-m:e-p270:32:32-p271:32:32-p272:64:64-i64:64-i128:128-f80:128-n8:16:32:64-S128"
target triple = "x86_64-pc-linux-gnu"

%struct.expert_field = type { i32, i32 }

@ei_nas_5gs_extraneous_data = internal global %struct.expert_field zeroinitializer, align 4
@ei_nas_5gs_missing_mandatory_element = internal global %struct.expert_field zeroinitializer, align 4
@.str.1644 = private unnamed_addr constant [1 x i8] zeroinitializer, align 1
@.str.1664 = private unnamed_addr constant [62 x i8] c"Missing Mandatory element %s%s, rest of dissection is suspect\00", align 1

; Function Attrs: null_pointer_is_valid sspstrong uwtable
define internal void @nas_5gs_mm_nw_slice_spec_auth_res(ptr noundef %0, ptr noundef %1, ptr noundef %2, i32 noundef %3, i32 noundef %4) #0 {
  %6 = alloca ptr, align 8
  %7 = alloca ptr, align 8
  %8 = alloca ptr, align 8
  %9 = alloca i32, align 4
  %10 = alloca i32, align 4
  %11 = alloca i32, align 4
  %12 = alloca i32, align 4
  %13 = alloca i32, align 4
  store ptr %0, ptr %6, align 8
  store ptr %1, ptr %7, align 8
  store ptr %2, ptr %8, align 8
  store i32 %3, ptr %9, align 4
  store i32 %4, ptr %10, align 4
  call void @llvm.lifetime.start.p0(i64 4, ptr %11) #11
  call void @llvm.lifetime.start.p0(i64 4, ptr %12) #11
  call void @llvm.lifetime.start.p0(i64 4, ptr %13) #11
  %14 = load i32, ptr %9, align 4
  store i32 %14, ptr %11, align 4
  %15 = load i32, ptr %10, align 4
  store i32 %15, ptr %13, align 4
  %16 = load i32, ptr %13, align 4
  %17 = icmp sgt i32 %16, 0
  br i1 %17, label %18, label %34

18:                                               ; preds = %5
  %19 = load ptr, ptr %6, align 8
  %20 = load ptr, ptr %7, align 8
  %21 = load ptr, ptr %8, align 8
  %22 = load i32, ptr %11, align 4
  %23 = load i32, ptr %13, align 4
  %24 = call zeroext i16 @elem_lv(ptr noundef %19, ptr noundef %20, ptr noundef %21, i32 noundef 16, i32 noundef 9, i32 noundef %22, i32 noundef %23, ptr noundef null)
  %25 = zext i16 %24 to i32
  store i32 %25, ptr %12, align 4
  %26 = icmp ugt i32 %25, 0
  br i1 %26, label %27, label %34

27:                                               ; preds = %18
  %28 = load i32, ptr %12, align 4
  %29 = load i32, ptr %11, align 4
  %30 = add i32 %29, %28
  store i32 %30, ptr %11, align 4
  %31 = load i32, ptr %12, align 4
  %32 = load i32, ptr %13, align 4
  %33 = sub i32 %32, %31
  store i32 %33, ptr %13, align 4
  br label %41

34:                                               ; preds = %18, %5
  %35 = load ptr, ptr %7, align 8
  %36 = load ptr, ptr %8, align 8
  %37 = load ptr, ptr %6, align 8
  %38 = load i32, ptr %11, align 4
  %39 = call ptr @get_gsm_a_msg_string(i32 noundef 16, i32 noundef 9)
  %40 = call ptr (ptr, ptr, ptr, ptr, i32, i32, ptr, ...) @proto_tree_add_expert_format(ptr noundef %35, ptr noundef %36, ptr noundef @ei_nas_5gs_missing_mandatory_element, ptr noundef %37, i32 noundef %38, i32 noundef 0, ptr noundef @.str.1664, ptr noundef %39, ptr noundef @.str.1644)
  br label %41

41:                                               ; preds = %34, %27
  %42 = load i32, ptr %13, align 4
  %43 = icmp sgt i32 %42, 0
  br i1 %43, label %44, label %60

44:                                               ; preds = %41
  %45 = load ptr, ptr %6, align 8
  %46 = load ptr, ptr %7, align 8
  %47 = load ptr, ptr %8, align 8
  %48 = load i32, ptr %11, align 4
  %49 = load i32, ptr %13, align 4
  %50 = call zeroext i16 @elem_lv_e(ptr noundef %45, ptr noundef %46, ptr noundef %47, i32 noundef 16, i32 noundef 3, i32 noundef %48, i32 noundef %49, ptr noundef null)
  %51 = zext i16 %50 to i32
  store i32 %51, ptr %12, align 4
  %52 = icmp ugt i32 %51, 0
  br i1 %52, label %53, label %60

53:                                               ; preds = %44
  %54 = load i32, ptr %12, align 4
  %55 = load i32, ptr %11, align 4
  %56 = add i32 %55, %54
  store i32 %56, ptr %11, align 4
  %57 = load i32, ptr %12, align 4
  %58 = load i32, ptr %13, align 4
  %59 = sub i32 %58, %57
  store i32 %59, ptr %13, align 4
  br label %67

60:                                               ; preds = %44, %41
  %61 = load ptr, ptr %7, align 8
  %62 = load ptr, ptr %8, align 8
  %63 = load ptr, ptr %6, align 8
  %64 = load i32, ptr %11, align 4
  %65 = call ptr @get_gsm_a_msg_string(i32 noundef 16, i32 noundef 3)
  %66 = call ptr (ptr, ptr, ptr, ptr, i32, i32, ptr, ...) @proto_tree_add_expert_format(ptr noundef %61, ptr noundef %62, ptr noundef @ei_nas_5gs_missing_mandatory_element, ptr noundef %63, i32 noundef %64, i32 noundef 0, ptr noundef @.str.1664, ptr noundef %65, ptr noundef @.str.1644)
  br label %67

67:                                               ; preds = %60, %53
  %68 = load i32, ptr %13, align 4
  %69 = icmp ugt i32 %68, 0
  br i1 %69, label %70, label %82

70:                                               ; preds = %67
  %71 = load ptr, ptr %7, align 8
  %72 = load ptr, ptr %8, align 8
  %73 = load ptr, ptr %6, align 8
  %74 = load i32, ptr %11, align 4
  %75 = load i32, ptr %13, align 4
  %76 = sub i32 %75, 0
  %77 = call ptr @proto_tree_add_expert(ptr noundef %71, ptr noundef %72, ptr noundef @ei_nas_5gs_extraneous_data, ptr noundef %73, i32 noundef %74, i32 noundef %76)
  %78 = load i32, ptr %13, align 4
  %79 = sub i32 %78, 0
  %80 = load i32, ptr %11, align 4
  %81 = add i32 %80, %79
  store i32 %81, ptr %11, align 4
  br label %82

82:                                               ; preds = %70, %67
  call void @llvm.lifetime.end.p0(i64 4, ptr %13) #11
  call void @llvm.lifetime.end.p0(i64 4, ptr %12) #11
  call void @llvm.lifetime.end.p0(i64 4, ptr %11) #11
  ret void
}